; Function Attrs: mustprogress uwtable
define noundef zeroext i1 @_ZN24SaveMeshAttributesDialog15shouldBeEnabledEiii(ptr nocapture noundef nonnull readonly align 8 dereferenceable(144) %0, i32 noundef %1, i32 noundef %2, i32 noundef %3) local_unnamed_addr #9 align 2 {
  %5 = and i32 %2, %1
  %6 = icmp eq i32 %5, 0
  br i1 %6, label %12, label %7

7:                                                ; preds = %4
  %8 = tail call noundef i32 @_ZN9MeshModel5io2mmEi(i32 noundef %1)
  %9 = getelementptr inbounds i8, ptr %0, i64 56
  %10 = load ptr, ptr %9, align 8
  %11 = tail call noundef zeroext i1 @_ZNK9MeshModel11hasDataMaskEi(ptr noundef nonnull align 8 dereferenceable(1288) %10, i32 noundef %8)
  br label %12

12:                                               ; preds = %7, %4
  %.0 = phi i1 [ false, %4 ], [ %11, %7 ]
  ret i1 %.0
}